target datalayout = "e-m:e-p270:32:32-p271:32:32-p272:64:64-i64:64-i128:128-f80:128-n8:16:32:64-S128"
target triple = "x86_64-pc-linux-gnu"

%struct.QueryOperator = type { i8, i8, i16, i32 }
%struct.TSQueryParserStateData = type { ptr, ptr, ptr, i32, i32, ptr, ptr, ptr, i32, i32, ptr, ptr }
%struct.OperatorElement = type { i8, i16 }

@tsearch_op_priority = dso_local constant [4 x i32] [i32 4, i32 2, i32 1, i32 3], align 16

; Function Attrs: nounwind uwtable
define dso_local void @pushOperator(ptr noundef %0, i8 noundef signext %1, i16 noundef signext %2) #0 {
  %4 = alloca ptr, align 8
  %5 = alloca i8, align 1
  %6 = alloca i16, align 2
  %7 = alloca ptr, align 8
  store ptr %0, ptr %4, align 8
  store i8 %1, ptr %5, align 1
  store i16 %2, ptr %6, align 2
  call void @llvm.lifetime.start.p0(i64 8, ptr %7) #11
  %8 = call ptr @palloc0(i64 noundef 8)
  store ptr %8, ptr %7, align 8
  %9 = load ptr, ptr %7, align 8
  %10 = getelementptr inbounds nuw %struct.QueryOperator, ptr %9, i32 0, i32 0
  store i8 2, ptr %10, align 4
  %11 = load i8, ptr %5, align 1
  %12 = load ptr, ptr %7, align 8
  %13 = getelementptr inbounds nuw %struct.QueryOperator, ptr %12, i32 0, i32 1
  store i8 %11, ptr %13, align 1
  %14 = load i8, ptr %5, align 1
  %15 = sext i8 %14 to i32
  %16 = icmp eq i32 %15, 4
  br i1 %16, label %17, label %20

17:                                               ; preds = %3
  %18 = load i16, ptr %6, align 2
  %19 = sext i16 %18 to i32
  br label %21

20:                                               ; preds = %3
  br label %21

21:                                               ; preds = %20, %17
  %22 = phi i32 [ %19, %17 ], [ 0, %20 ]
  %23 = trunc i32 %22 to i16
  %24 = load ptr, ptr %7, align 8
  %25 = getelementptr inbounds nuw %struct.QueryOperator, ptr %24, i32 0, i32 2
  store i16 %23, ptr %25, align 2
  %26 = load ptr, ptr %7, align 8
  %27 = load ptr, ptr %4, align 8
  %28 = getelementptr inbounds nuw %struct.TSQueryParserStateData, ptr %27, i32 0, i32 5
  %29 = load ptr, ptr %28, align 8
  %30 = call ptr @lcons(ptr noundef %26, ptr noundef %29)
  %31 = load ptr, ptr %4, align 8
  %32 = getelementptr inbounds nuw %struct.TSQueryParserStateData, ptr %31, i32 0, i32 5
  store ptr %30, ptr %32, align 8
  call void @llvm.lifetime.end.p0(i64 8, ptr %7) #11
  ret void
}

; Function Attrs: nounwind uwtable
define internal void @cleanOpStack(ptr noundef %0, ptr noundef %1, ptr noundef %2, i8 noundef signext %3) #0 {
  %5 = alloca ptr, align 8
  %6 = alloca ptr, align 8
  %7 = alloca ptr, align 8
  %8 = alloca i8, align 1
  %9 = alloca i32, align 4
  store ptr %0, ptr %5, align 8
  store ptr %1, ptr %6, align 8
  store ptr %2, ptr %7, align 8
  store i8 %3, ptr %8, align 1
  call void @llvm.lifetime.start.p0(i64 4, ptr %9) #11
  %10 = load i8, ptr %8, align 1
  %11 = sext i8 %10 to i32
  %12 = sub i32 %11, 1
  %13 = sext i32 %12 to i64
  %14 = getelementptr inbounds [4 x i32], ptr @tsearch_op_priority, i64 0, i64 %13
  %15 = load i32, ptr %14, align 4
  store i32 %15, ptr %9, align 4
  br label %16

16:                                               ; preds = %61, %4
  %17 = load ptr, ptr %7, align 8
  %18 = load i32, ptr %17, align 4
  %19 = icmp ne i32 %18, 0
  br i1 %19, label %20, label %80

20:                                               ; preds = %16
  %21 = load i8, ptr %8, align 1
  %22 = sext i8 %21 to i32
  %23 = icmp ne i32 %22, 1
  br i1 %23, label %24, label %40

24:                                               ; preds = %20
  %25 = load i32, ptr %9, align 4
  %26 = load ptr, ptr %6, align 8
  %27 = load ptr, ptr %7, align 8
  %28 = load i32, ptr %27, align 4
  %29 = sub i32 %28, 1
  %30 = sext i32 %29 to i64
  %31 = getelementptr inbounds %struct.OperatorElement, ptr %26, i64 %30
  %32 = getelementptr inbounds nuw %struct.OperatorElement, ptr %31, i32 0, i32 0
  %33 = load i8, ptr %32, align 2
  %34 = sext i8 %33 to i32
  %35 = sub i32 %34, 1
  %36 = sext i32 %35 to i64
  %37 = getelementptr inbounds [4 x i32], ptr @tsearch_op_priority, i64 0, i64 %36
  %38 = load i32, ptr %37, align 4
  %39 = icmp sgt i32 %25, %38
  br i1 %39, label %60, label %40

40:                                               ; preds = %24, %20
  %41 = load i8, ptr %8, align 1
  %42 = sext i8 %41 to i32
  %43 = icmp eq i32 %42, 1
  br i1 %43, label %44, label %61

44:                                               ; preds = %40
  %45 = load i32, ptr %9, align 4
  %46 = load ptr, ptr %6, align 8
  %47 = load ptr, ptr %7, align 8
  %48 = load i32, ptr %47, align 4
  %49 = sub i32 %48, 1
  %50 = sext i32 %49 to i64
  %51 = getelementptr inbounds %struct.OperatorElement, ptr %46, i64 %50
  %52 = getelementptr inbounds nuw %struct.OperatorElement, ptr %51, i32 0, i32 0
  %53 = load i8, ptr %52, align 2
  %54 = sext i8 %53 to i32
  %55 = sub i32 %54, 1
  %56 = sext i32 %55 to i64
  %57 = getelementptr inbounds [4 x i32], ptr @tsearch_op_priority, i64 0, i64 %56
  %58 = load i32, ptr %57, align 4
  %59 = icmp sge i32 %45, %58
  br i1 %59, label %60, label %61

60:                                               ; preds = %44, %24
  br label %80

61:                                               ; preds = %44, %40
  %62 = load ptr, ptr %7, align 8
  %63 = load i32, ptr %62, align 4
  %64 = add i32 %63, -1
  store i32 %64, ptr %62, align 4
  %65 = load ptr, ptr %5, align 8
  %66 = load ptr, ptr %6, align 8
  %67 = load ptr, ptr %7, align 8
  %68 = load i32, ptr %67, align 4
  %69 = sext i32 %68 to i64
  %70 = getelementptr inbounds %struct.OperatorElement, ptr %66, i64 %69
  %71 = getelementptr inbounds nuw %struct.OperatorElement, ptr %70, i32 0, i32 0
  %72 = load i8, ptr %71, align 2
  %73 = load ptr, ptr %6, align 8
  %74 = load ptr, ptr %7, align 8
  %75 = load i32, ptr %74, align 4
  %76 = sext i32 %75 to i64
  %77 = getelementptr inbounds %struct.OperatorElement, ptr %73, i64 %76
  %78 = getelementptr inbounds nuw %struct.OperatorElement, ptr %77, i32 0, i32 1
  %79 = load i16, ptr %78, align 2
  call void @pushOperator(ptr noundef %65, i8 noundef signext %72, i16 noundef signext %79)
  br label %16, !llvm.loop !26

80:                                               ; preds = %60, %16
  call void @llvm.lifetime.end.p0(i64 4, ptr %9) #11
  ret void
}