; Function Attrs: nounwind uwtable
define internal fastcc void @cleanOpStack(ptr noundef nonnull captures(none) %0, ptr noundef nonnull readonly captures(none) %1, ptr noundef nonnull captures(none) %2, i8 noundef signext %3) unnamed_addr #0 {
  %5 = sext i8 %3 to i64
  %6 = add nsw i64 %5, -1
  %7 = getelementptr inbounds [4 x i32], ptr @tsearch_op_priority, i64 0, i64 %6
  %8 = load i32, ptr %7, align 4
  %9 = load i32, ptr %2, align 4
  %.not17 = icmp eq i32 %9, 0
  br i1 %.not17, label %._crit_edge, label %.lr.ph

.lr.ph:                                           ; preds = %4
  %cond = icmp eq i8 %3, 1
  %10 = getelementptr inbounds nuw i8, ptr %0, i64 32
  br i1 %cond, label %.lr.ph.split.us, label %.lr.ph.split

.lr.ph.split.us:                                  ; preds = %.lr.ph, %20
  %11 = phi i32 [ %31, %20 ], [ %9, %.lr.ph ]
  %12 = add i32 %11, -1
  %13 = sext i32 %12 to i64
  %14 = getelementptr inbounds %struct.OperatorElement, ptr %1, i64 %13
  %15 = load i8, ptr %14, align 2
  %16 = sext i8 %15 to i64
  %17 = add nsw i64 %16, -1
  %18 = getelementptr inbounds [4 x i32], ptr @tsearch_op_priority, i64 0, i64 %17
  %19 = load i32, ptr %18, align 4
  %.not16.us = icmp slt i32 %8, %19
  br i1 %.not16.us, label %20, label %._crit_edge

20:                                               ; preds = %.lr.ph.split.us
  store i32 %12, ptr %2, align 4
  %21 = load i8, ptr %14, align 2
  %22 = getelementptr inbounds nuw i8, ptr %14, i64 2
  %23 = load i16, ptr %22, align 2
  %24 = tail call ptr @palloc0(i64 noundef 8) #12
  store i8 2, ptr %24, align 4
  %25 = getelementptr inbounds nuw i8, ptr %24, i64 1
  store i8 %21, ptr %25, align 1
  %26 = icmp eq i8 %21, 4
  %27 = select i1 %26, i16 %23, i16 0
  %28 = getelementptr inbounds nuw i8, ptr %24, i64 2
  store i16 %27, ptr %28, align 2
  %29 = load ptr, ptr %10, align 8
  %30 = tail call ptr @lcons(ptr noundef nonnull %24, ptr noundef %29) #12
  store ptr %30, ptr %10, align 8
  %31 = load i32, ptr %2, align 4
  %.not.us = icmp eq i32 %31, 0
  br i1 %.not.us, label %._crit_edge, label %.lr.ph.split.us, !llvm.loop !12

.lr.ph.split:                                     ; preds = %.lr.ph, %42
  %32 = phi i32 [ %53, %42 ], [ %9, %.lr.ph ]
  %33 = add i32 %32, -1
  %34 = sext i32 %33 to i64
  %35 = getelementptr inbounds %struct.OperatorElement, ptr %1, i64 %34
  %36 = load i8, ptr %35, align 2
  %37 = sext i8 %36 to i64
  %38 = add nsw i64 %37, -1
  %39 = getelementptr inbounds [4 x i32], ptr @tsearch_op_priority, i64 0, i64 %38
  %40 = load i32, ptr %39, align 4
  %41 = icmp sgt i32 %8, %40
  br i1 %41, label %._crit_edge, label %42

42:                                               ; preds = %.lr.ph.split
  store i32 %33, ptr %2, align 4
  %43 = load i8, ptr %35, align 2
  %44 = getelementptr inbounds nuw i8, ptr %35, i64 2
  %45 = load i16, ptr %44, align 2
  %46 = tail call ptr @palloc0(i64 noundef 8) #12
  store i8 2, ptr %46, align 4
  %47 = getelementptr inbounds nuw i8, ptr %46, i64 1
  store i8 %43, ptr %47, align 1
  %48 = icmp eq i8 %43, 4
  %49 = select i1 %48, i16 %45, i16 0
  %50 = getelementptr inbounds nuw i8, ptr %46, i64 2
  store i16 %49, ptr %50, align 2
  %51 = load ptr, ptr %10, align 8
  %52 = tail call ptr @lcons(ptr noundef nonnull %46, ptr noundef %51) #12
  store ptr %52, ptr %10, align 8
  %53 = load i32, ptr %2, align 4
  %.not = icmp eq i32 %53, 0
  br i1 %.not, label %._crit_edge, label %.lr.ph.split, !llvm.loop !12

._crit_edge:                                      ; preds = %42, %.lr.ph.split, %20, %.lr.ph.split.us, %4
  ret void
}